target datalayout = "e-m:e-p270:32:32-p271:32:32-p272:64:64-i64:64-i128:128-f80:128-n8:16:32:64-S128"
target triple = "x86_64-pc-linux-gnu"

%"class.llvm::TypeSize" = type { %"class.llvm::details::FixedOrScalableQuantity.base", [7 x i8] }
%"class.llvm::details::FixedOrScalableQuantity.base" = type <{ i64, i8 }>
%"struct.llvm::RegisterBankInfo::ValueMapping" = type <{ ptr, i32, [4 x i8] }>
%"class.llvm::details::FixedOrScalableQuantity" = type <{ i64, i8, [7 x i8] }>

@_ZN4llvm26AArch64GenRegisterBankInfo18BankIDToCopyMapIdxE = constant [3 x i32] [i32 -1, i32 1, i32 7], align 4

; Function Attrs: mustprogress nounwind uwtable
define linkonce_odr hidden noundef i64 @_ZNK4llvm7details23FixedOrScalableQuantityINS_8TypeSizeEmE16getKnownMinValueEv(ptr noundef nonnull align 8 dereferenceable(9) %0) #0 comdat align 2 {
  %2 = alloca ptr, align 8
  store ptr %0, ptr %2, align 8
  %3 = load ptr, ptr %2, align 8
  %4 = getelementptr inbounds nuw %"class.llvm::details::FixedOrScalableQuantity", ptr %3, i32 0, i32 0
  %5 = load i64, ptr %4, align 8
  ret i64 %5
}

; Function Attrs: mustprogress nounwind uwtable
define dso_local noundef i32 @_ZN4llvm26AArch64GenRegisterBankInfo23getRegBankBaseIdxOffsetEjNS_8TypeSizeE(i32 noundef %0, i64 %1, i8 %2) #0 align 2 {
  %4 = alloca i32, align 4
  %5 = alloca %"class.llvm::TypeSize", align 8
  %6 = alloca i32, align 4
  %7 = alloca i32, align 4
  %8 = getelementptr inbounds nuw { i64, i8 }, ptr %5, i32 0, i32 0
  store i64 %1, ptr %8, align 8
  %9 = getelementptr inbounds nuw { i64, i8 }, ptr %5, i32 0, i32 1
  store i8 %2, ptr %9, align 8
  store i32 %0, ptr %6, align 4
  %10 = load i32, ptr %6, align 4
  %11 = icmp eq i32 %10, 7
  br i1 %11, label %12, label %25

12:                                               ; preds = %3
  %13 = call noundef i64 @_ZNK4llvm8TypeSizecvmEv(ptr noundef nonnull align 8 dereferenceable(9) %5)
  %14 = icmp ule i64 %13, 32
  br i1 %14, label %15, label %16

15:                                               ; preds = %12
  store i32 0, ptr %4, align 4
  br label %56

16:                                               ; preds = %12
  %17 = call noundef i64 @_ZNK4llvm8TypeSizecvmEv(ptr noundef nonnull align 8 dereferenceable(9) %5)
  %18 = icmp ule i64 %17, 64
  br i1 %18, label %19, label %20

19:                                               ; preds = %16
  store i32 1, ptr %4, align 4
  br label %56

20:                                               ; preds = %16
  %21 = call noundef i64 @_ZNK4llvm8TypeSizecvmEv(ptr noundef nonnull align 8 dereferenceable(9) %5)
  %22 = icmp ule i64 %21, 128
  br i1 %22, label %23, label %24

23:                                               ; preds = %20
  store i32 2, ptr %4, align 4
  br label %56

24:                                               ; preds = %20
  store i32 -1, ptr %4, align 4
  br label %56

25:                                               ; preds = %3
  %26 = load i32, ptr %6, align 4
  %27 = icmp eq i32 %26, 1
  br i1 %27, label %28, label %55

28:                                               ; preds = %25
  %29 = call noundef i64 @_ZNK4llvm7details23FixedOrScalableQuantityINS_8TypeSizeEmE16getKnownMinValueEv(ptr noundef nonnull align 8 dereferenceable(9) %5)
  %30 = trunc i64 %29 to i32
  store i32 %30, ptr %7, align 4
  %31 = load i32, ptr %7, align 4
  %32 = icmp ule i32 %31, 16
  br i1 %32, label %33, label %34

33:                                               ; preds = %28
  store i32 0, ptr %4, align 4
  br label %56

34:                                               ; preds = %28
  %35 = load i32, ptr %7, align 4
  %36 = icmp ule i32 %35, 32
  br i1 %36, label %37, label %38

37:                                               ; preds = %34
  store i32 1, ptr %4, align 4
  br label %56

38:                                               ; preds = %34
  %39 = load i32, ptr %7, align 4
  %40 = icmp ule i32 %39, 64
  br i1 %40, label %41, label %42

41:                                               ; preds = %38
  store i32 2, ptr %4, align 4
  br label %56

42:                                               ; preds = %38
  %43 = load i32, ptr %7, align 4
  %44 = icmp ule i32 %43, 128
  br i1 %44, label %45, label %46

45:                                               ; preds = %42
  store i32 3, ptr %4, align 4
  br label %56

46:                                               ; preds = %42
  %47 = load i32, ptr %7, align 4
  %48 = icmp ule i32 %47, 256
  br i1 %48, label %49, label %50

49:                                               ; preds = %46
  store i32 4, ptr %4, align 4
  br label %56

50:                                               ; preds = %46
  %51 = load i32, ptr %7, align 4
  %52 = icmp ule i32 %51, 512
  br i1 %52, label %53, label %54

53:                                               ; preds = %50
  store i32 5, ptr %4, align 4
  br label %56

54:                                               ; preds = %50
  store i32 -1, ptr %4, align 4
  br label %56

55:                                               ; preds = %25
  store i32 -1, ptr %4, align 4
  br label %56

56:                                               ; preds = %55, %54, %53, %49, %45, %41, %37, %33, %24, %23, %19, %15
  %57 = load i32, ptr %4, align 4
  ret i32 %57
}

; Function Attrs: mustprogress nounwind uwtable
define dso_local noundef ptr @_ZN4llvm26AArch64GenRegisterBankInfo15getValueMappingENS0_17PartialMappingIdxENS_8TypeSizeE(i32 noundef %0, i64 %1, i8 %2) #0 align 2 {
  %4 = alloca ptr, align 8
  %5 = alloca %"class.llvm::TypeSize", align 8
  %6 = alloca i32, align 4
  %7 = alloca i32, align 4
  %8 = alloca %"class.llvm::TypeSize", align 8
  %9 = alloca i32, align 4
  %10 = getelementptr inbounds nuw { i64, i8 }, ptr %5, i32 0, i32 0
  store i64 %1, ptr %10, align 8
  %11 = getelementptr inbounds nuw { i64, i8 }, ptr %5, i32 0, i32 1
  store i8 %2, ptr %11, align 8
  store i32 %0, ptr %6, align 4
  %12 = load i32, ptr %6, align 4
  call void @llvm.memcpy.p0.p0.i64(ptr align 8 %8, ptr align 8 %5, i64 16, i1 false)
  %13 = getelementptr inbounds nuw { i64, i8 }, ptr %8, i32 0, i32 0
  %14 = load i64, ptr %13, align 8
  %15 = getelementptr inbounds nuw { i64, i8 }, ptr %8, i32 0, i32 1
  %16 = load i8, ptr %15, align 8
  %17 = call noundef i32 @_ZN4llvm26AArch64GenRegisterBankInfo23getRegBankBaseIdxOffsetEjNS_8TypeSizeE(i32 noundef %12, i64 %14, i8 %16)
  store i32 %17, ptr %7, align 4
  %18 = load i32, ptr %7, align 4
  %19 = icmp eq i32 %18, -1
  br i1 %19, label %20, label %21

20:                                               ; preds = %3
  store ptr @_ZN4llvm26AArch64GenRegisterBankInfo11ValMappingsE, ptr %4, align 8
  br label %31

21:                                               ; preds = %3
  %22 = load i32, ptr %6, align 4
  %23 = sub nsw i32 %22, 1
  %24 = load i32, ptr %7, align 4
  %25 = add i32 %23, %24
  %26 = mul i32 %25, 3
  %27 = add i32 1, %26
  store i32 %27, ptr %9, align 4
  %28 = load i32, ptr %9, align 4
  %29 = zext i32 %28 to i64
  %30 = getelementptr inbounds [55 x %"struct.llvm::RegisterBankInfo::ValueMapping"], ptr @_ZN4llvm26AArch64GenRegisterBankInfo11ValMappingsE, i64 0, i64 %29
  store ptr %30, ptr %4, align 8
  br label %31

31:                                               ; preds = %21, %20
  %32 = load ptr, ptr %4, align 8
  ret ptr %32
}

; Function Attrs: mustprogress nounwind uwtable
define dso_local noundef ptr @_ZN4llvm26AArch64GenRegisterBankInfo14getCopyMappingEjjNS_8TypeSizeE(i32 noundef %0, i32 noundef %1, i64 %2, i8 %3) #0 align 2 {
  %5 = alloca ptr, align 8
  %6 = alloca %"class.llvm::TypeSize", align 8
  %7 = alloca i32, align 4
  %8 = alloca i32, align 4
  %9 = alloca i32, align 4
  %10 = alloca i32, align 4
  %11 = alloca %"class.llvm::TypeSize", align 8
  %12 = alloca i32, align 4
  %13 = alloca %"class.llvm::TypeSize", align 8
  %14 = getelementptr inbounds nuw { i64, i8 }, ptr %6, i32 0, i32 0
  store i64 %2, ptr %14, align 8
  %15 = getelementptr inbounds nuw { i64, i8 }, ptr %6, i32 0, i32 1
  store i8 %3, ptr %15, align 8
  store i32 %0, ptr %7, align 4
  store i32 %1, ptr %8, align 4
  %16 = load i32, ptr %7, align 4
  %17 = zext i32 %16 to i64
  %18 = getelementptr inbounds [3 x i32], ptr @_ZN4llvm26AArch64GenRegisterBankInfo18BankIDToCopyMapIdxE, i64 0, i64 %17
  %19 = load i32, ptr %18, align 4
  store i32 %19, ptr %9, align 4
  %20 = load i32, ptr %8, align 4
  %21 = zext i32 %20 to i64
  %22 = getelementptr inbounds [3 x i32], ptr @_ZN4llvm26AArch64GenRegisterBankInfo18BankIDToCopyMapIdxE, i64 0, i64 %21
  %23 = load i32, ptr %22, align 4
  store i32 %23, ptr %10, align 4
  %24 = load i32, ptr %9, align 4
  %25 = load i32, ptr %10, align 4
  %26 = icmp eq i32 %24, %25
  br i1 %26, label %27, label %34

27:                                               ; preds = %4
  %28 = load i32, ptr %9, align 4
  call void @llvm.memcpy.p0.p0.i64(ptr align 8 %11, ptr align 8 %6, i64 16, i1 false)
  %29 = getelementptr inbounds nuw { i64, i8 }, ptr %11, i32 0, i32 0
  %30 = load i64, ptr %29, align 8
  %31 = getelementptr inbounds nuw { i64, i8 }, ptr %11, i32 0, i32 1
  %32 = load i8, ptr %31, align 8
  %33 = call noundef ptr @_ZN4llvm26AArch64GenRegisterBankInfo15getValueMappingENS0_17PartialMappingIdxENS_8TypeSizeE(i32 noundef %28, i64 %30, i8 %32)
  store ptr %33, ptr %5, align 8
  br label %49

34:                                               ; preds = %4
  %35 = load i32, ptr %9, align 4
  %36 = sub nsw i32 %35, 1
  %37 = load i32, ptr %9, align 4
  call void @llvm.memcpy.p0.p0.i64(ptr align 8 %13, ptr align 8 %6, i64 16, i1 false)
  %38 = getelementptr inbounds nuw { i64, i8 }, ptr %13, i32 0, i32 0
  %39 = load i64, ptr %38, align 8
  %40 = getelementptr inbounds nuw { i64, i8 }, ptr %13, i32 0, i32 1
  %41 = load i8, ptr %40, align 8
  %42 = call noundef i32 @_ZN4llvm26AArch64GenRegisterBankInfo23getRegBankBaseIdxOffsetEjNS_8TypeSizeE(i32 noundef %37, i64 %39, i8 %41)
  %43 = add i32 %36, %42
  %44 = mul i32 %43, 2
  %45 = add i32 28, %44
  store i32 %45, ptr %12, align 4
  %46 = load i32, ptr %12, align 4
  %47 = zext i32 %46 to i64
  %48 = getelementptr inbounds [55 x %"struct.llvm::RegisterBankInfo::ValueMapping"], ptr @_ZN4llvm26AArch64GenRegisterBankInfo11ValMappingsE, i64 0, i64 %47
  store ptr %48, ptr %5, align 8
  br label %49

49:                                               ; preds = %34, %27
  %50 = load ptr, ptr %5, align 8
  ret ptr %50
}