; Function Attrs: mustprogress nounwind uwtable
define dso_local noundef nonnull ptr @_ZN4llvm26AArch64GenRegisterBankInfo14getCopyMappingEjjNS_8TypeSizeE(i32 noundef %0, i32 noundef %1, i64 %2, i8 %3) local_unnamed_addr #0 align 2 {
  %5 = alloca %"class.llvm::TypeSize", align 8
  %6 = alloca %"class.llvm::TypeSize", align 8
  %7 = zext i32 %0 to i64
  %8 = getelementptr inbounds [3 x i32], ptr @_ZN4llvm26AArch64GenRegisterBankInfo18BankIDToCopyMapIdxE, i64 0, i64 %7
  %9 = load i32, ptr %8, align 4
  %10 = zext i32 %1 to i64
  %11 = getelementptr inbounds [3 x i32], ptr @_ZN4llvm26AArch64GenRegisterBankInfo18BankIDToCopyMapIdxE, i64 0, i64 %10
  %12 = load i32, ptr %11, align 4
  %13 = icmp eq i32 %9, %12
  br i1 %13, label %14, label %44

14:                                               ; preds = %4
  call void @llvm.lifetime.start.p0(i64 16, ptr nonnull %6)
  store i64 %2, ptr %6, align 8
  %15 = getelementptr inbounds nuw i8, ptr %6, i64 8
  store i8 %3, ptr %15, align 8
  switch i32 %9, label %_ZN4llvm26AArch64GenRegisterBankInfo23getRegBankBaseIdxOffsetEjNS_8TypeSizeE.exit.i [
    i32 7, label %16
    i32 1, label %25
  ]

16:                                               ; preds = %14
  %17 = call noundef i64 @_ZNK4llvm8TypeSizecvmEv(ptr noundef nonnull align 8 dereferenceable(9) %6) #15
  %18 = icmp ult i64 %17, 33
  br i1 %18, label %select.unfold.i, label %19

19:                                               ; preds = %16
  %20 = call noundef i64 @_ZNK4llvm8TypeSizecvmEv(ptr noundef nonnull align 8 dereferenceable(9) %6) #15
  %21 = icmp ult i64 %20, 65
  br i1 %21, label %select.unfold.i, label %22

22:                                               ; preds = %19
  %23 = call noundef i64 @_ZNK4llvm8TypeSizecvmEv(ptr noundef nonnull align 8 dereferenceable(9) %6) #15
  %24 = icmp ult i64 %23, 129
  br i1 %24, label %select.unfold.i, label %_ZN4llvm26AArch64GenRegisterBankInfo23getRegBankBaseIdxOffsetEjNS_8TypeSizeE.exit.i

25:                                               ; preds = %14
  %26 = trunc i64 %2 to i32
  %27 = icmp ult i32 %26, 17
  br i1 %27, label %select.unfold.i, label %28

28:                                               ; preds = %25
  %29 = icmp ult i32 %26, 33
  br i1 %29, label %select.unfold.i, label %30

30:                                               ; preds = %28
  %31 = icmp ult i32 %26, 65
  br i1 %31, label %select.unfold.i, label %32

32:                                               ; preds = %30
  %33 = icmp ult i32 %26, 129
  br i1 %33, label %select.unfold.i, label %34

34:                                               ; preds = %32
  %35 = icmp ult i32 %26, 257
  br i1 %35, label %select.unfold.i, label %36

36:                                               ; preds = %34
  %37 = icmp ult i32 %26, 513
  br i1 %37, label %select.unfold.i, label %_ZN4llvm26AArch64GenRegisterBankInfo23getRegBankBaseIdxOffsetEjNS_8TypeSizeE.exit.i

_ZN4llvm26AArch64GenRegisterBankInfo23getRegBankBaseIdxOffsetEjNS_8TypeSizeE.exit.i: ; preds = %36, %22, %14
  call void @llvm.lifetime.end.p0(i64 16, ptr nonnull %6)
  br label %_ZN4llvm26AArch64GenRegisterBankInfo15getValueMappingENS0_17PartialMappingIdxENS_8TypeSizeE.exit

select.unfold.i:                                  ; preds = %36, %34, %32, %30, %28, %25, %22, %19, %16
  %.0.i.ph.i = phi i32 [ 4, %34 ], [ 3, %32 ], [ 2, %30 ], [ 1, %28 ], [ 0, %25 ], [ 1, %19 ], [ 0, %16 ], [ 2, %22 ], [ 5, %36 ]
  call void @llvm.lifetime.end.p0(i64 16, ptr nonnull %6)
  %38 = add nsw i32 %9, -1
  %39 = add nuw nsw i32 %38, %.0.i.ph.i
  %40 = mul nuw nsw i32 %39, 3
  %41 = add nuw nsw i32 %40, 1
  %42 = zext nneg i32 %41 to i64
  %43 = getelementptr inbounds [55 x %"struct.llvm::RegisterBankInfo::ValueMapping"], ptr @_ZN4llvm26AArch64GenRegisterBankInfo11ValMappingsE, i64 0, i64 %42
  br label %_ZN4llvm26AArch64GenRegisterBankInfo15getValueMappingENS0_17PartialMappingIdxENS_8TypeSizeE.exit

44:                                               ; preds = %4
  %45 = add i32 %9, 2147483647
  call void @llvm.lifetime.start.p0(i64 16, ptr nonnull %5)
  store i64 %2, ptr %5, align 8
  %46 = getelementptr inbounds nuw i8, ptr %5, i64 8
  store i8 %3, ptr %46, align 8
  switch i32 %9, label %_ZN4llvm26AArch64GenRegisterBankInfo23getRegBankBaseIdxOffsetEjNS_8TypeSizeE.exit [
    i32 7, label %47
    i32 1, label %56
  ]

47:                                               ; preds = %44
  %48 = call noundef i64 @_ZNK4llvm8TypeSizecvmEv(ptr noundef nonnull align 8 dereferenceable(9) %5) #15
  %49 = icmp ult i64 %48, 33
  br i1 %49, label %_ZN4llvm26AArch64GenRegisterBankInfo23getRegBankBaseIdxOffsetEjNS_8TypeSizeE.exit, label %50

50:                                               ; preds = %47
  %51 = call noundef i64 @_ZNK4llvm8TypeSizecvmEv(ptr noundef nonnull align 8 dereferenceable(9) %5) #15
  %52 = icmp ult i64 %51, 65
  br i1 %52, label %_ZN4llvm26AArch64GenRegisterBankInfo23getRegBankBaseIdxOffsetEjNS_8TypeSizeE.exit, label %53

53:                                               ; preds = %50
  %54 = call noundef i64 @_ZNK4llvm8TypeSizecvmEv(ptr noundef nonnull align 8 dereferenceable(9) %5) #15
  %55 = icmp ult i64 %54, 129
  %..i = select i1 %55, i32 2, i32 -1
  br label %_ZN4llvm26AArch64GenRegisterBankInfo23getRegBankBaseIdxOffsetEjNS_8TypeSizeE.exit

56:                                               ; preds = %44
  %57 = trunc i64 %2 to i32
  %58 = icmp ult i32 %57, 17
  br i1 %58, label %_ZN4llvm26AArch64GenRegisterBankInfo23getRegBankBaseIdxOffsetEjNS_8TypeSizeE.exit, label %59

59:                                               ; preds = %56
  %60 = icmp ult i32 %57, 33
  br i1 %60, label %_ZN4llvm26AArch64GenRegisterBankInfo23getRegBankBaseIdxOffsetEjNS_8TypeSizeE.exit, label %61

61:                                               ; preds = %59
  %62 = icmp ult i32 %57, 65
  br i1 %62, label %_ZN4llvm26AArch64GenRegisterBankInfo23getRegBankBaseIdxOffsetEjNS_8TypeSizeE.exit, label %63

63:                                               ; preds = %61
  %64 = icmp ult i32 %57, 129
  br i1 %64, label %_ZN4llvm26AArch64GenRegisterBankInfo23getRegBankBaseIdxOffsetEjNS_8TypeSizeE.exit, label %65

65:                                               ; preds = %63
  %66 = icmp ult i32 %57, 257
  br i1 %66, label %_ZN4llvm26AArch64GenRegisterBankInfo23getRegBankBaseIdxOffsetEjNS_8TypeSizeE.exit, label %67

67:                                               ; preds = %65
  %68 = icmp ult i32 %57, 513
  %.11.i = select i1 %68, i32 5, i32 -1
  br label %_ZN4llvm26AArch64GenRegisterBankInfo23getRegBankBaseIdxOffsetEjNS_8TypeSizeE.exit

_ZN4llvm26AArch64GenRegisterBankInfo23getRegBankBaseIdxOffsetEjNS_8TypeSizeE.exit: ; preds = %44, %47, %50, %53, %56, %59, %61, %63, %65, %67
  %.0.i16 = phi i32 [ 0, %47 ], [ 1, %50 ], [ %..i, %53 ], [ 0, %56 ], [ 1, %59 ], [ 2, %61 ], [ 3, %63 ], [ 4, %65 ], [ %.11.i, %67 ], [ -1, %44 ]
  call void @llvm.lifetime.end.p0(i64 16, ptr nonnull %5)
  %69 = add i32 %45, %.0.i16
  %70 = shl i32 %69, 1
  %71 = add i32 %70, 28
  %72 = zext i32 %71 to i64
  %73 = getelementptr inbounds [55 x %"struct.llvm::RegisterBankInfo::ValueMapping"], ptr @_ZN4llvm26AArch64GenRegisterBankInfo11ValMappingsE, i64 0, i64 %72
  br label %_ZN4llvm26AArch64GenRegisterBankInfo15getValueMappingENS0_17PartialMappingIdxENS_8TypeSizeE.exit

_ZN4llvm26AArch64GenRegisterBankInfo15getValueMappingENS0_17PartialMappingIdxENS_8TypeSizeE.exit: ; preds = %select.unfold.i, %_ZN4llvm26AArch64GenRegisterBankInfo23getRegBankBaseIdxOffsetEjNS_8TypeSizeE.exit.i, %_ZN4llvm26AArch64GenRegisterBankInfo23getRegBankBaseIdxOffsetEjNS_8TypeSizeE.exit
  %.0 = phi ptr [ %73, %_ZN4llvm26AArch64GenRegisterBankInfo23getRegBankBaseIdxOffsetEjNS_8TypeSizeE.exit ], [ %43, %select.unfold.i ], [ @_ZN4llvm26AArch64GenRegisterBankInfo11ValMappingsE, %_ZN4llvm26AArch64GenRegisterBankInfo23getRegBankBaseIdxOffsetEjNS_8TypeSizeE.exit.i ]
  ret ptr %.0
}